target datalayout = "e-m:e-p270:32:32-p271:32:32-p272:64:64-i64:64-i128:128-f80:128-n8:16:32:64-S128"
target triple = "x86_64-pc-linux-gnu"

%struct.RsaKey = type { %struct.sp_int, %struct.sp_int, %struct.sp_int, %struct.sp_int, %struct.sp_int, %struct.sp_int, %struct.sp_int, %struct.sp_int, ptr, ptr, i32, i32, i32, ptr, i8 }
%struct.sp_int = type { i16, i16, [129 x i64] }

; Function Attrs: nounwind uwtable
define i32 @RsaFunctionCheckIn(ptr noundef %0, i32 noundef %1, ptr noundef %2, i32 noundef %3) #0 {
  %5 = alloca ptr, align 8
  %6 = alloca i32, align 4
  %7 = alloca ptr, align 8
  %8 = alloca i32, align 4
  %9 = alloca i32, align 4
  %10 = alloca ptr, align 8
  %11 = alloca i64, align 8
  %12 = alloca ptr, align 8
  store ptr %0, ptr %5, align 8, !tbaa !27
  store i32 %1, ptr %6, align 4, !tbaa !7
  store ptr %2, ptr %7, align 8, !tbaa !11
  store i32 %3, ptr %8, align 4, !tbaa !7
  call void @llvm.lifetime.start.p0(i64 4, ptr %9) #8
  store i32 0, ptr %9, align 4, !tbaa !7
  %13 = load ptr, ptr %7, align 8, !tbaa !11
  %14 = getelementptr inbounds nuw %struct.RsaKey, ptr %13, i32 0, i32 0
  %15 = getelementptr inbounds nuw %struct.sp_int, ptr %14, i32 0, i32 0
  %16 = load i16, ptr %15, align 8, !tbaa !39
  %17 = zext i16 %16 to i32
  %18 = mul nsw i32 %17, 64
  %19 = add nsw i32 %18, 64
  %20 = sub nsw i32 %19, 1
  %21 = sdiv i32 %20, 64
  %22 = mul nsw i32 %21, 2
  %23 = add nsw i32 %22, 1
  %24 = icmp ule i32 %23, 1
  br i1 %24, label %25, label %26

25:                                               ; preds = %4
  br label %40

26:                                               ; preds = %4
  %27 = load ptr, ptr %7, align 8, !tbaa !11
  %28 = getelementptr inbounds nuw %struct.RsaKey, ptr %27, i32 0, i32 0
  %29 = getelementptr inbounds nuw %struct.sp_int, ptr %28, i32 0, i32 0
  %30 = load i16, ptr %29, align 8, !tbaa !39
  %31 = zext i16 %30 to i32
  %32 = mul nsw i32 %31, 64
  %33 = add nsw i32 %32, 64
  %34 = sub nsw i32 %33, 1
  %35 = sdiv i32 %34, 64
  %36 = mul nsw i32 %35, 2
  %37 = add nsw i32 %36, 1
  %38 = sub i32 %37, 1
  %39 = zext i32 %38 to i64
  br label %40

40:                                               ; preds = %26, %25
  %41 = phi i64 [ 0, %25 ], [ %39, %26 ]
  %42 = mul i64 %41, 8
  %43 = add i64 16, %42
  %44 = call ptr @llvm.stacksave.p0()
  store ptr %44, ptr %10, align 8
  %45 = alloca i8, i64 %43, align 16
  store i64 %43, ptr %11, align 8
  call void @llvm.lifetime.start.p0(i64 8, ptr %12) #8
  store ptr %45, ptr %12, align 8, !tbaa !40
  %46 = load ptr, ptr %12, align 8, !tbaa !40
  %47 = load ptr, ptr %7, align 8, !tbaa !11
  %48 = getelementptr inbounds nuw %struct.RsaKey, ptr %47, i32 0, i32 0
  %49 = getelementptr inbounds nuw %struct.sp_int, ptr %48, i32 0, i32 0
  %50 = load i16, ptr %49, align 8, !tbaa !39
  %51 = zext i16 %50 to i32
  %52 = mul nsw i32 %51, 64
  %53 = add nsw i32 %52, 64
  %54 = sub nsw i32 %53, 1
  %55 = sdiv i32 %54, 64
  %56 = mul nsw i32 %55, 2
  %57 = add nsw i32 %56, 1
  %58 = icmp ule i32 %57, 1
  br i1 %58, label %59, label %60

59:                                               ; preds = %40
  br label %74

60:                                               ; preds = %40
  %61 = load ptr, ptr %7, align 8, !tbaa !11
  %62 = getelementptr inbounds nuw %struct.RsaKey, ptr %61, i32 0, i32 0
  %63 = getelementptr inbounds nuw %struct.sp_int, ptr %62, i32 0, i32 0
  %64 = load i16, ptr %63, align 8, !tbaa !39
  %65 = zext i16 %64 to i32
  %66 = mul nsw i32 %65, 64
  %67 = add nsw i32 %66, 64
  %68 = sub nsw i32 %67, 1
  %69 = sdiv i32 %68, 64
  %70 = mul nsw i32 %69, 2
  %71 = add nsw i32 %70, 1
  %72 = sub i32 %71, 1
  %73 = zext i32 %72 to i64
  br label %74

74:                                               ; preds = %60, %59
  %75 = phi i64 [ 0, %59 ], [ %73, %60 ]
  %76 = mul i64 %75, 8
  %77 = add i64 16, %76
  call void @llvm.memset.p0.i64(ptr align 8 %46, i8 0, i64 %77, i1 false)
  %78 = load i32, ptr %9, align 4, !tbaa !7
  %79 = icmp eq i32 %78, 0
  br i1 %79, label %80, label %96

80:                                               ; preds = %74
  %81 = load ptr, ptr %12, align 8, !tbaa !40
  %82 = load ptr, ptr %7, align 8, !tbaa !11
  %83 = getelementptr inbounds nuw %struct.RsaKey, ptr %82, i32 0, i32 0
  %84 = getelementptr inbounds nuw %struct.sp_int, ptr %83, i32 0, i32 0
  %85 = load i16, ptr %84, align 8, !tbaa !39
  %86 = zext i16 %85 to i32
  %87 = mul nsw i32 %86, 64
  %88 = add nsw i32 %87, 64
  %89 = sub nsw i32 %88, 1
  %90 = sdiv i32 %89, 64
  %91 = mul nsw i32 %90, 2
  %92 = add nsw i32 %91, 1
  %93 = call i32 @sp_init_size(ptr noundef %81, i32 noundef %92)
  %94 = icmp ne i32 %93, 0
  br i1 %94, label %95, label %96

95:                                               ; preds = %80
  store i32 -110, ptr %9, align 4, !tbaa !7
  br label %96

96:                                               ; preds = %95, %80, %74
  %97 = load i32, ptr %9, align 4, !tbaa !7
  %98 = icmp eq i32 %97, 0
  br i1 %98, label %99, label %107

99:                                               ; preds = %96
  %100 = load ptr, ptr %12, align 8, !tbaa !40
  %101 = load ptr, ptr %5, align 8, !tbaa !27
  %102 = load i32, ptr %6, align 4, !tbaa !7
  %103 = call i32 @sp_read_unsigned_bin(ptr noundef %100, ptr noundef %101, i32 noundef %102)
  %104 = icmp ne i32 %103, 0
  br i1 %104, label %105, label %106

105:                                              ; preds = %99
  store i32 -111, ptr %9, align 4, !tbaa !7
  br label %106

106:                                              ; preds = %105, %99
  br label %107

107:                                              ; preds = %106, %96
  %108 = load i32, ptr %9, align 4, !tbaa !7
  %109 = icmp eq i32 %108, 0
  br i1 %109, label %110, label %119

110:                                              ; preds = %107
  %111 = load i32, ptr %8, align 4, !tbaa !7
  %112 = icmp ne i32 %111, 0
  br i1 %112, label %113, label %118

113:                                              ; preds = %110
  %114 = load ptr, ptr %12, align 8, !tbaa !40
  %115 = call i32 @sp_cmp_d(ptr noundef %114, i64 noundef 1)
  %116 = icmp ne i32 %115, 1
  br i1 %116, label %117, label %118

117:                                              ; preds = %113
  store i32 -253, ptr %9, align 4, !tbaa !7
  br label %118

118:                                              ; preds = %117, %113, %110
  br label %119

119:                                              ; preds = %118, %107
  %120 = load i32, ptr %9, align 4, !tbaa !7
  %121 = icmp eq i32 %120, 0
  br i1 %121, label %122, label %129

122:                                              ; preds = %119
  %123 = load ptr, ptr %12, align 8, !tbaa !40
  %124 = load ptr, ptr %12, align 8, !tbaa !40
  %125 = call i32 @sp_add_d(ptr noundef %123, i64 noundef 1, ptr noundef %124)
  %126 = icmp ne i32 %125, 0
  br i1 %126, label %127, label %128

127:                                              ; preds = %122
  store i32 -115, ptr %9, align 4, !tbaa !7
  br label %128

128:                                              ; preds = %127, %122
  br label %129

129:                                              ; preds = %128, %119
  %130 = load i32, ptr %9, align 4, !tbaa !7
  %131 = icmp eq i32 %130, 0
  br i1 %131, label %132, label %140

132:                                              ; preds = %129
  %133 = load ptr, ptr %12, align 8, !tbaa !40
  %134 = load ptr, ptr %7, align 8, !tbaa !11
  %135 = getelementptr inbounds nuw %struct.RsaKey, ptr %134, i32 0, i32 0
  %136 = call i32 @sp_cmp(ptr noundef %133, ptr noundef %135)
  %137 = icmp ne i32 %136, -1
  br i1 %137, label %138, label %139

138:                                              ; preds = %132
  store i32 -253, ptr %9, align 4, !tbaa !7
  br label %139

139:                                              ; preds = %138, %132
  br label %140

140:                                              ; preds = %139, %129
  %141 = load ptr, ptr %12, align 8, !tbaa !40
  call void @sp_clear(ptr noundef %141)
  br label %142

142:                                              ; preds = %140
  br label %143

143:                                              ; preds = %142
  br label %144

144:                                              ; preds = %143
  %145 = load i32, ptr %9, align 4, !tbaa !7
  call void @llvm.lifetime.end.p0(i64 8, ptr %12) #8
  %146 = load ptr, ptr %10, align 8
  call void @llvm.stackrestore.p0(ptr %146)
  call void @llvm.lifetime.end.p0(i64 4, ptr %9) #8
  ret i32 %145
}