; Function Attrs: nounwind uwtable
define range(i32 -253, 1) i32 @RsaFunctionCheckIn(ptr noundef %0, i32 noundef %1, ptr noundef %2, i32 noundef %3) local_unnamed_addr #0 {
  %5 = load i16, ptr %2, align 8, !tbaa !38
  %6 = zext i16 %5 to i64
  %7 = shl nuw nsw i64 %6, 4
  %8 = add nuw nsw i64 %7, 16
  %9 = alloca i8, i64 %8, align 16
  call void @llvm.memset.p0.i64(ptr noundef nonnull align 16 dereferenceable(1) %9, i8 0, i64 %8, i1 false)
  %10 = zext i16 %5 to i32
  %11 = shl nuw nsw i32 %10, 1
  %12 = or disjoint i32 %11, 1
  %13 = call i32 @sp_init_size(ptr noundef nonnull %9, i32 noundef %12) #12
  %.not = icmp eq i32 %13, 0
  br i1 %.not, label %14, label %.thread35

14:                                               ; preds = %4
  %15 = call i32 @sp_read_unsigned_bin(ptr noundef nonnull %9, ptr noundef %0, i32 noundef %1) #12
  %.not24 = icmp eq i32 %15, 0
  %16 = icmp ne i32 %3, 0
  %or.cond = and i1 %16, %.not24
  br i1 %or.cond, label %17, label %19

17:                                               ; preds = %14
  %18 = call i32 @sp_cmp_d(ptr noundef nonnull %9, i64 noundef 1) #12
  %.not25 = icmp eq i32 %18, 1
  br i1 %.not25, label %.thread, label %.thread35

19:                                               ; preds = %14
  %spec.select = select i1 %.not24, i32 0, i32 -111
  br i1 %.not24, label %.thread, label %.thread35

.thread:                                          ; preds = %17, %19
  %20 = call i32 @sp_add_d(ptr noundef nonnull %9, i64 noundef 1, ptr noundef nonnull %9) #12
  %.not26 = icmp eq i32 %20, 0
  br i1 %.not26, label %21, label %.thread35

21:                                               ; preds = %.thread
  %22 = call i32 @sp_cmp(ptr noundef nonnull %9, ptr noundef nonnull %2) #12
  %.not27 = icmp eq i32 %22, -1
  %spec.select30 = select i1 %.not27, i32 0, i32 -253
  br label %.thread35

.thread35:                                        ; preds = %4, %17, %.thread, %19, %21
  %.4 = phi i32 [ %spec.select30, %21 ], [ -115, %.thread ], [ %spec.select, %19 ], [ -253, %17 ], [ -110, %4 ]
  call void @sp_clear(ptr noundef nonnull %9) #12
  ret i32 %.4
}